#include <math.h>
#include <stdio.h>
#include <stdlib.h>
#include <string.h>

void main()
{
    char a[10],b[5];
	int i,n=0,l,s=0;
		while(scanf("%s %s",&a,&b)!=EOF)
	{
		l=strlen(a);
		int max;
		char *p=&a[0];
		max=*p;
		for(i=0;i<l;i++,p++)
		{
			if(*p>max)
			{
				max=*p;
				n=i;
			}
		}
      for(i=0;i<=n;i++)
      printf("%c",a[i]);
	  printf("%s",b);
	  if(n<l-1)
	  {
		  for(i=n+1;i<l-1;i++)
		  printf("%c",a[i]);
	      printf("%c\n",a[l-1]);
	  }
	  else
		  printf("\n");
	

	}
}
